; Function Attrs: mustprogress uwtable
define hidden void @_ZN15ast_translation5cacheEP3astS1_(ptr noundef nonnull align 8 dereferenceable(84) %this, ptr noundef %s, ptr noundef %t) local_unnamed_addr #4 align 2 {
entry:
  %ref.tmp.i = alloca %"struct.obj_map<ast, ast *>::key_data", align 8
  %m_ref_count.i = getelementptr inbounds i8, ptr %s, i64 8
  %0 = load i32, ptr %m_ref_count.i, align 4
  %cmp = icmp ugt i32 %0, 1
  br i1 %cmp, label %_ZN11ast_manager7inc_refEP3ast.exit, label %if.end

_ZN11ast_manager7inc_refEP3ast.exit:              ; preds = %entry
  %inc.i.i = add i32 %0, 1
  store i32 %inc.i.i, ptr %m_ref_count.i, align 4
  %tobool.not.i3 = icmp eq ptr %t, null
  br i1 %tobool.not.i3, label %_ZN11ast_manager7inc_refEP3ast.exit7, label %if.then.i4

if.then.i4:                                       ; preds = %_ZN11ast_manager7inc_refEP3ast.exit
  %m_ref_count.i.i5 = getelementptr inbounds i8, ptr %t, i64 8
  %1 = load i32, ptr %m_ref_count.i.i5, align 4
  %inc.i.i6 = add i32 %1, 1
  store i32 %inc.i.i6, ptr %m_ref_count.i.i5, align 4
  br label %_ZN11ast_manager7inc_refEP3ast.exit7

_ZN11ast_manager7inc_refEP3ast.exit7:             ; preds = %_ZN11ast_manager7inc_refEP3ast.exit, %if.then.i4
  %m_cache = getelementptr inbounds i8, ptr %this, i64 40
  call void @llvm.lifetime.start.p0(i64 16, ptr nonnull %ref.tmp.i)
  store ptr %s, ptr %ref.tmp.i, align 8
  %m_value.i.i = getelementptr inbounds i8, ptr %ref.tmp.i, i64 8
  store ptr %t, ptr %m_value.i.i, align 8
  call void @_ZN14core_hashtableIN7obj_mapI3astPS1_E13obj_map_entryE8obj_hashINS3_8key_dataEE10default_eqIS6_EE6insertEOS6_(ptr noundef nonnull align 8 dereferenceable(20) %m_cache, ptr noundef nonnull align 8 dereferenceable(16) %ref.tmp.i)
  call void @llvm.lifetime.end.p0(i64 16, ptr nonnull %ref.tmp.i)
  %m_insert_count = getelementptr inbounds i8, ptr %this, i64 76
  %2 = load i32, ptr %m_insert_count, align 4
  %inc = add i32 %2, 1
  store i32 %inc, ptr %m_insert_count, align 4
  br label %if.end

if.end:                                           ; preds = %_ZN11ast_manager7inc_refEP3ast.exit7, %entry
  ret void
}